target datalayout = "e-m:e-p270:32:32-p271:32:32-p272:64:64-i64:64-i128:128-f80:128-n8:16:32:64-S128"
target triple = "x86_64-pc-linux-gnu"

%class.XServiceabilityCycleTracer = type { [8 x i8], %class.TraceMemoryManagerStats }
%class.TraceMemoryManagerStats = type { ptr, i32, ptr, i8, i8, i8, i8, i8, i8, i8, i8 }
%class.CollectedHeap = type { ptr, ptr, i64, i64, %class.SoftRefPolicy, %class.MemRegion, i8, i64, i32, i32, i32, i32, ptr, ptr }
%class.SoftRefPolicy = type { i8, i8 }
%class.MemRegion = type { ptr, i64 }

@.str.9 = private unnamed_addr constant [16 x i8] c"end of GC cycle\00", align 1
@_ZN5XHeap5_heapE = external global ptr, align 8

; Function Attrs: mustprogress nounwind uwtable
define linkonce_odr hidden noundef i32 @_ZN13CollectedHeap8gc_causeEv(ptr noundef nonnull align 8 dereferenceable(104) %0) #1 comdat align 2 {
  %2 = alloca ptr, align 8
  store ptr %0, ptr %2, align 8
  %3 = load ptr, ptr %2, align 8
  %4 = getelementptr inbounds %class.CollectedHeap, ptr %3, i32 0, i32 10
  %5 = load i32, ptr %4, align 8
  ret i32 %5
}

; Function Attrs: mustprogress nounwind uwtable
define linkonce_odr hidden noundef ptr @_ZN5XHeap4heapEv() #1 comdat align 2 {
  %1 = load ptr, ptr @_ZN5XHeap5_heapE, align 8
  ret ptr %1
}

; Function Attrs: mustprogress nounwind uwtable
define hidden void @_ZN26XServiceabilityCycleTracerC2Ev(ptr noundef nonnull align 8 dereferenceable(40) %0) unnamed_addr #1 align 2 {
  %2 = alloca ptr, align 8
  store ptr %0, ptr %2, align 8
  %3 = load ptr, ptr %2, align 8
  %4 = getelementptr inbounds %class.XServiceabilityCycleTracer, ptr %3, i32 0, i32 1
  %5 = call noundef ptr @_ZN5XHeap4heapEv()
  %6 = call noundef ptr @_ZN5XHeap35serviceability_cycle_memory_managerEv(ptr noundef nonnull align 64 dereferenceable(4088) %5)
  %7 = call noundef ptr @_ZN14XCollectedHeap4heapEv()
  %8 = call noundef i32 @_ZN13CollectedHeap8gc_causeEv(ptr noundef nonnull align 8 dereferenceable(104) %7)
  call void @_ZN23TraceMemoryManagerStatsC1EP15GCMemoryManagerN7GCCause5CauseEPKcbbbbbbbb(ptr noundef nonnull align 8 dereferenceable(32) %4, ptr noundef %6, i32 noundef %8, ptr noundef @.str.9, i1 noundef zeroext true, i1 noundef zeroext true, i1 noundef zeroext true, i1 noundef zeroext true, i1 noundef zeroext true, i1 noundef zeroext true, i1 noundef zeroext true, i1 noundef zeroext true)
  ret void
}