; Function Attrs: mustprogress nounwind uwtable
define hidden void @_ZN26XServiceabilityCycleTracerC2Ev(ptr noundef nonnull align 8 dereferenceable(40) %0) unnamed_addr #0 align 2 {
  %2 = getelementptr inbounds i8, ptr %0, i64 8
  %3 = load ptr, ptr @_ZN5XHeap5_heapE, align 8
  %4 = tail call noundef ptr @_ZN5XHeap35serviceability_cycle_memory_managerEv(ptr noundef nonnull align 64 dereferenceable(4088) %3) #8
  %5 = tail call noundef ptr @_ZN14XCollectedHeap4heapEv() #8
  %6 = getelementptr inbounds i8, ptr %5, i64 80
  %7 = load i32, ptr %6, align 8
  tail call void @_ZN23TraceMemoryManagerStatsC1EP15GCMemoryManagerN7GCCause5CauseEPKcbbbbbbbb(ptr noundef nonnull align 8 dereferenceable(32) %2, ptr noundef %4, i32 noundef %7, ptr noundef nonnull @.str.9, i1 noundef zeroext true, i1 noundef zeroext true, i1 noundef zeroext true, i1 noundef zeroext true, i1 noundef zeroext true, i1 noundef zeroext true, i1 noundef zeroext true, i1 noundef zeroext true) #8
  ret void
}